target datalayout = "e-m:e-p270:32:32-p271:32:32-p272:64:64-i64:64-i128:128-f80:128-n8:16:32:64-S128"
target triple = "x86_64-pc-linux-gnu"

%struct.ossl_method_store_st = type { ptr, ptr, ptr, ptr, i64, i32 }

; Function Attrs: nounwind uwtable
define i32 @ossl_method_lock_store(ptr noundef %0) #0 {
  %2 = alloca ptr, align 8
  store ptr %0, ptr %2, align 8, !tbaa !16
  %3 = load ptr, ptr %2, align 8, !tbaa !16
  %4 = icmp ne ptr %3, null
  br i1 %4, label %5, label %10

5:                                                ; preds = %1
  %6 = load ptr, ptr %2, align 8, !tbaa !16
  %7 = getelementptr inbounds nuw %struct.ossl_method_store_st, ptr %6, i32 0, i32 3
  %8 = load ptr, ptr %7, align 8, !tbaa !24
  %9 = call i32 @CRYPTO_THREAD_write_lock(ptr noundef %8)
  br label %11

10:                                               ; preds = %1
  br label %11

11:                                               ; preds = %10, %5
  %12 = phi i32 [ %9, %5 ], [ 0, %10 ]
  ret i32 %12
}