; Function Attrs: nounwind uwtable
define i32 @ossl_method_lock_store(ptr noundef readonly captures(address_is_null) %0) local_unnamed_addr #0 {
  %.not = icmp eq ptr %0, null
  br i1 %.not, label %6, label %2

2:                                                ; preds = %1
  %3 = getelementptr inbounds nuw i8, ptr %0, i64 24
  %4 = load ptr, ptr %3, align 8, !tbaa !17
  %5 = tail call i32 @CRYPTO_THREAD_write_lock(ptr noundef %4) #7
  br label %6

6:                                                ; preds = %1, %2
  %7 = phi i32 [ %5, %2 ], [ 0, %1 ]
  ret i32 %7
}